target datalayout = "e-m:e-p270:32:32-p271:32:32-p272:64:64-i64:64-i128:128-f80:128-n8:16:32:64-S128"
target triple = "x86_64-unknown-linux-gnu"

%struct.tpm_error = type { i32, ptr }
%struct.TPMEmulator = type { %struct.TPMBackend, ptr, %struct.CharBackend, ptr, i32, i64, i8, ptr, %struct.QemuMutex, i8, %struct.TPMBlobBuffers, i8, ptr }
%struct.TPMBackend = type { %struct.Object, ptr, i8, i8, ptr, ptr, %struct.anon }
%struct.Object = type { ptr, ptr, ptr, i32, ptr }
%struct.anon = type { ptr, ptr }
%struct.CharBackend = type { ptr, ptr, ptr, ptr, ptr, ptr, i32, i32 }
%struct.QemuMutex = type { %union.pthread_mutex_t, i8 }
%union.pthread_mutex_t = type { %struct.__pthread_mutex_s }
%struct.__pthread_mutex_s = type { i32, i32, i32, i32, i32, i16, i16, %struct.__pthread_internal_list }
%struct.__pthread_internal_list = type { ptr, ptr }
%struct.TPMBlobBuffers = type { i32, %struct.TPMSizedBuffer, i32, %struct.TPMSizedBuffer, i32, %struct.TPMSizedBuffer }
%struct.TPMSizedBuffer = type { i32, ptr }
%struct.QemuLockable = type { ptr, ptr, ptr }

@.str = private unnamed_addr constant [13 x i8] c"tpm-emulator\00", align 1
@.str.2 = private unnamed_addr constant [36 x i8] c"../qemu/backends/tpm/tpm_emulator.c\00", align 1
@__func__.TPM_EMULATOR = private unnamed_addr constant [13 x i8] c"TPM_EMULATOR\00", align 1
@.str.12 = private unnamed_addr constant [1 x i8] zeroinitializer, align 1
@.str.36 = private unnamed_addr constant [37 x i8] c"tpm-emulator: Could not stop TPM: %s\00", align 1
@.str.37 = private unnamed_addr constant [47 x i8] c"tpm-emulator: TPM result for CMD_STOP: 0x%x %s\00", align 1

; Function Attrs: nounwind sspstrong uwtable
define internal void @glib_autoptr_clear_QemuLockable(ptr noundef %_ptr) #0 {
entry:
  %_ptr.addr = alloca ptr, align 8
  store ptr %_ptr, ptr %_ptr.addr, align 8
  %0 = load ptr, ptr %_ptr.addr, align 8
  %tobool = icmp ne ptr %0, null
  br i1 %tobool, label %if.then, label %if.end

if.then:                                          ; preds = %entry
  %1 = load ptr, ptr %_ptr.addr, align 8
  call void @qemu_lockable_auto_unlock(ptr noundef %1)
  br label %if.end

if.end:                                           ; preds = %if.then, %entry
  ret void
}

; Function Attrs: nounwind sspstrong uwtable
define internal void @qemu_lockable_unlock(ptr noundef %x) #0 {
entry:
  %x.addr = alloca ptr, align 8
  store ptr %x, ptr %x.addr, align 8
  %0 = load ptr, ptr %x.addr, align 8
  %unlock = getelementptr inbounds %struct.QemuLockable, ptr %0, i32 0, i32 2
  %1 = load ptr, ptr %unlock, align 8
  %2 = load ptr, ptr %x.addr, align 8
  %object = getelementptr inbounds %struct.QemuLockable, ptr %2, i32 0, i32 0
  %3 = load ptr, ptr %object, align 8
  call void %1(ptr noundef %3)
  ret void
}

; Function Attrs: nounwind sspstrong uwtable
define internal void @qemu_lockable_lock(ptr noundef %x) #0 {
entry:
  %x.addr = alloca ptr, align 8
  store ptr %x, ptr %x.addr, align 8
  %0 = load ptr, ptr %x.addr, align 8
  %lock = getelementptr inbounds %struct.QemuLockable, ptr %0, i32 0, i32 1
  %1 = load ptr, ptr %lock, align 8
  %2 = load ptr, ptr %x.addr, align 8
  %object = getelementptr inbounds %struct.QemuLockable, ptr %2, i32 0, i32 0
  %3 = load ptr, ptr %object, align 8
  call void %1(ptr noundef %3)
  ret void
}

; Function Attrs: nounwind sspstrong uwtable
define internal void @glib_autoptr_cleanup_QemuLockable(ptr noundef %_ptr) #0 {
entry:
  %_ptr.addr = alloca ptr, align 8
  store ptr %_ptr, ptr %_ptr.addr, align 8
  %0 = load ptr, ptr %_ptr.addr, align 8
  %1 = load ptr, ptr %0, align 8
  call void @glib_autoptr_clear_QemuLockable(ptr noundef %1)
  ret void
}

; Function Attrs: nounwind sspstrong uwtable
define internal void @qemu_lockable_auto_unlock(ptr noundef %x) #0 {
entry:
  %x.addr = alloca ptr, align 8
  store ptr %x, ptr %x.addr, align 8
  %0 = load ptr, ptr %x.addr, align 8
  %tobool = icmp ne ptr %0, null
  br i1 %tobool, label %if.then, label %if.end

if.then:                                          ; preds = %entry
  %1 = load ptr, ptr %x.addr, align 8
  call void @qemu_lockable_unlock(ptr noundef %1)
  br label %if.end

if.end:                                           ; preds = %if.then, %entry
  ret void
}

; Function Attrs: nounwind sspstrong uwtable
define internal ptr @qemu_lockable_auto_lock(ptr noundef %x) #0 {
entry:
  %x.addr = alloca ptr, align 8
  store ptr %x, ptr %x.addr, align 8
  %0 = load ptr, ptr %x.addr, align 8
  call void @qemu_lockable_lock(ptr noundef %0)
  %1 = load ptr, ptr %x.addr, align 8
  ret ptr %1
}

; Function Attrs: nounwind sspstrong uwtable
define internal i32 @cpu_to_be32(i32 noundef %v) #0 {
entry:
  %v.addr = alloca i32, align 4
  store i32 %v, ptr %v.addr, align 4
  %0 = load i32, ptr %v.addr, align 4
  %1 = call i32 @llvm.bswap.i32(i32 %0)
  ret i32 %1
}

; Function Attrs: nounwind sspstrong uwtable
define internal ptr @tpm_emulator_strerror(i32 noundef %tpm_result) #0 {
entry:
  %retval = alloca ptr, align 8
  %tpm_result.addr = alloca i32, align 4
  %i = alloca i64, align 8
  store i32 %tpm_result, ptr %tpm_result.addr, align 4
  store i64 0, ptr %i, align 8
  br label %for.cond

for.cond:                                         ; preds = %for.inc, %entry
  %0 = load i64, ptr %i, align 8
  %cmp = icmp ult i64 %0, 13
  br i1 %cmp, label %for.body, label %for.end

for.body:                                         ; preds = %for.cond
  %1 = load i64, ptr %i, align 8
  %arrayidx = getelementptr [13 x %struct.tpm_error], ptr @tpm_errors, i64 0, i64 %1
  %tpm_result1 = getelementptr inbounds %struct.tpm_error, ptr %arrayidx, i32 0, i32 0
  %2 = load i32, ptr %tpm_result1, align 16
  %3 = load i32, ptr %tpm_result.addr, align 4
  %cmp2 = icmp eq i32 %2, %3
  br i1 %cmp2, label %if.then, label %if.end

if.then:                                          ; preds = %for.body
  %4 = load i64, ptr %i, align 8
  %arrayidx3 = getelementptr [13 x %struct.tpm_error], ptr @tpm_errors, i64 0, i64 %4
  %string = getelementptr inbounds %struct.tpm_error, ptr %arrayidx3, i32 0, i32 1
  %5 = load ptr, ptr %string, align 8
  store ptr %5, ptr %retval, align 8
  br label %return

if.end:                                           ; preds = %for.body
  br label %for.inc

for.inc:                                          ; preds = %if.end
  %6 = load i64, ptr %i, align 8
  %inc = add i64 %6, 1
  store i64 %inc, ptr %i, align 8
  br label %for.cond, !llvm.loop !7

for.end:                                          ; preds = %for.cond
  store ptr @.str.12, ptr %retval, align 8
  br label %return

return:                                           ; preds = %for.end, %if.then
  %7 = load ptr, ptr %retval, align 8
  ret ptr %7
}

; Function Attrs: nounwind sspstrong uwtable
define internal i32 @be32_to_cpu(i32 noundef %v) #0 {
entry:
  %v.addr = alloca i32, align 4
  store i32 %v, ptr %v.addr, align 4
  %0 = load i32, ptr %v.addr, align 4
  %1 = call i32 @llvm.bswap.i32(i32 %0)
  ret i32 %1
}

; Function Attrs: nounwind sspstrong uwtable
define internal i32 @tpm_emulator_ctrlcmd(ptr noundef %tpm, i64 noundef %cmd, ptr noundef %msg, i64 noundef %msg_len_in, i64 noundef %msg_len_out) #0 {
entry:
  %retval = alloca i32, align 4
  %tpm.addr = alloca ptr, align 8
  %cmd.addr = alloca i64, align 8
  %msg.addr = alloca ptr, align 8
  %msg_len_in.addr = alloca i64, align 8
  %msg_len_out.addr = alloca i64, align 8
  %dev = alloca ptr, align 8
  %cmd_no = alloca i32, align 4
  %n = alloca i64, align 8
  %buf = alloca ptr, align 8
  %qemu_lockable_auto0 = alloca ptr, align 8
  %.compoundliteral = alloca %struct.QemuLockable, align 8
  %cleanup.dest.slot = alloca i32, align 4
  store ptr %tpm, ptr %tpm.addr, align 8
  store i64 %cmd, ptr %cmd.addr, align 8
  store ptr %msg, ptr %msg.addr, align 8
  store i64 %msg_len_in, ptr %msg_len_in.addr, align 8
  store i64 %msg_len_out, ptr %msg_len_out.addr, align 8
  %0 = load ptr, ptr %tpm.addr, align 8
  %ctrl_chr = getelementptr inbounds %struct.TPMEmulator, ptr %0, i32 0, i32 2
  store ptr %ctrl_chr, ptr %dev, align 8
  %1 = load i64, ptr %cmd.addr, align 8
  %conv = trunc i64 %1 to i32
  %call = call i32 @cpu_to_be32(i32 noundef %conv)
  store i32 %call, ptr %cmd_no, align 4
  %2 = load i64, ptr %msg_len_in.addr, align 8
  %add = add i64 4, %2
  store i64 %add, ptr %n, align 8
  store ptr null, ptr %buf, align 8
  %object = getelementptr inbounds %struct.QemuLockable, ptr %.compoundliteral, i32 0, i32 0
  %3 = load ptr, ptr %tpm.addr, align 8
  %mutex = getelementptr inbounds %struct.TPMEmulator, ptr %3, i32 0, i32 8
  store ptr %mutex, ptr %object, align 8
  %lock = getelementptr inbounds %struct.QemuLockable, ptr %.compoundliteral, i32 0, i32 1
  store ptr @qemu_mutex_lock, ptr %lock, align 8
  %unlock = getelementptr inbounds %struct.QemuLockable, ptr %.compoundliteral, i32 0, i32 2
  store ptr @qemu_mutex_unlock, ptr %unlock, align 8
  %call1 = call ptr @qemu_lockable_auto_lock(ptr noundef %.compoundliteral)
  store ptr %call1, ptr %qemu_lockable_auto0, align 8
  br label %for.cond

for.cond:                                         ; preds = %for.inc, %entry
  %4 = load ptr, ptr %qemu_lockable_auto0, align 8
  %tobool = icmp ne ptr %4, null
  br i1 %tobool, label %for.body, label %for.cond.cleanup

for.cond.cleanup:                                 ; preds = %for.cond
  store i32 2, ptr %cleanup.dest.slot, align 4
  br label %cleanup

for.body:                                         ; preds = %for.cond
  %5 = load i64, ptr %n, align 8
  %6 = alloca i8, i64 %5, align 16
  store ptr %6, ptr %buf, align 8
  %7 = load ptr, ptr %buf, align 8
  call void @llvm.memcpy.p0.p0.i64(ptr align 1 %7, ptr align 4 %cmd_no, i64 4, i1 false)
  %8 = load ptr, ptr %buf, align 8
  %add.ptr = getelementptr i8, ptr %8, i64 4
  %9 = load ptr, ptr %msg.addr, align 8
  %10 = load i64, ptr %msg_len_in.addr, align 8
  call void @llvm.memcpy.p0.p0.i64(ptr align 1 %add.ptr, ptr align 1 %9, i64 %10, i1 false)
  %11 = load ptr, ptr %dev, align 8
  %12 = load ptr, ptr %buf, align 8
  %13 = load i64, ptr %n, align 8
  %conv2 = trunc i64 %13 to i32
  %call3 = call i32 @qemu_chr_fe_write_all(ptr noundef %11, ptr noundef %12, i32 noundef %conv2)
  %conv4 = sext i32 %call3 to i64
  store i64 %conv4, ptr %n, align 8
  %14 = load i64, ptr %n, align 8
  %cmp = icmp sle i64 %14, 0
  br i1 %cmp, label %if.then, label %if.end

if.then:                                          ; preds = %for.body
  store i32 -1, ptr %retval, align 4
  store i32 1, ptr %cleanup.dest.slot, align 4
  br label %cleanup

if.end:                                           ; preds = %for.body
  %15 = load i64, ptr %msg_len_out.addr, align 8
  %cmp6 = icmp ne i64 %15, 0
  br i1 %cmp6, label %if.then8, label %if.end16

if.then8:                                         ; preds = %if.end
  %16 = load ptr, ptr %dev, align 8
  %17 = load ptr, ptr %msg.addr, align 8
  %18 = load i64, ptr %msg_len_out.addr, align 8
  %conv9 = trunc i64 %18 to i32
  %call10 = call i32 @qemu_chr_fe_read_all(ptr noundef %16, ptr noundef %17, i32 noundef %conv9)
  %conv11 = sext i32 %call10 to i64
  store i64 %conv11, ptr %n, align 8
  %19 = load i64, ptr %n, align 8
  %cmp12 = icmp sle i64 %19, 0
  br i1 %cmp12, label %if.then14, label %if.end15

if.then14:                                        ; preds = %if.then8
  store i32 -1, ptr %retval, align 4
  store i32 1, ptr %cleanup.dest.slot, align 4
  br label %cleanup

if.end15:                                         ; preds = %if.then8
  br label %if.end16

if.end16:                                         ; preds = %if.end15, %if.end
  br label %for.inc

for.inc:                                          ; preds = %if.end16
  %20 = load ptr, ptr %qemu_lockable_auto0, align 8
  call void @qemu_lockable_auto_unlock(ptr noundef %20)
  store ptr null, ptr %qemu_lockable_auto0, align 8
  br label %for.cond, !llvm.loop !5

cleanup:                                          ; preds = %if.then14, %if.then, %for.cond.cleanup
  call void @glib_autoptr_cleanup_QemuLockable(ptr noundef %qemu_lockable_auto0)
  %cleanup.dest = load i32, ptr %cleanup.dest.slot, align 4
  switch i32 %cleanup.dest, label %unreachable [
    i32 2, label %for.end
    i32 1, label %return
  ]

for.end:                                          ; preds = %cleanup
  store i32 0, ptr %retval, align 4
  br label %return

return:                                           ; preds = %for.end, %cleanup
  %21 = load i32, ptr %retval, align 4
  ret i32 %21

unreachable:                                      ; preds = %cleanup
  unreachable
}

; Function Attrs: nounwind sspstrong uwtable
define internal ptr @TPM_EMULATOR(ptr noundef %obj) #0 {
entry:
  %obj.addr = alloca ptr, align 8
  store ptr %obj, ptr %obj.addr, align 8
  %0 = load ptr, ptr %obj.addr, align 8
  %call = call ptr @object_dynamic_cast_assert(ptr noundef %0, ptr noundef @.str, ptr noundef @.str.2, i32 noundef 50, ptr noundef @__func__.TPM_EMULATOR)
  ret ptr %call
}

; Function Attrs: nounwind sspstrong uwtable
define internal i32 @tpm_emulator_stop_tpm(ptr noundef %tb) #0 {
entry:
  %retval = alloca i32, align 4
  %tb.addr = alloca ptr, align 8
  %tpm_emu = alloca ptr, align 8
  %res = alloca i32, align 4
  store ptr %tb, ptr %tb.addr, align 8
  %0 = load ptr, ptr %tb.addr, align 8
  %call = call ptr @TPM_EMULATOR(ptr noundef %0)
  store ptr %call, ptr %tpm_emu, align 8
  %1 = load ptr, ptr %tpm_emu, align 8
  %call1 = call i32 @tpm_emulator_ctrlcmd(ptr noundef %1, i64 noundef 14, ptr noundef %res, i64 noundef 0, i64 noundef 4)
  %cmp = icmp slt i32 %call1, 0
  br i1 %cmp, label %if.then, label %if.end

if.then:                                          ; preds = %entry
  %call2 = call ptr @__errno_location() #12
  %2 = load i32, ptr %call2, align 4
  %call3 = call ptr @strerror(i32 noundef %2) #11
  call void (ptr, ...) @error_report(ptr noundef @.str.36, ptr noundef %call3)
  store i32 -1, ptr %retval, align 4
  br label %return

if.end:                                           ; preds = %entry
  %3 = load i32, ptr %res, align 4
  %call4 = call i32 @be32_to_cpu(i32 noundef %3)
  store i32 %call4, ptr %res, align 4
  %4 = load i32, ptr %res, align 4
  %tobool = icmp ne i32 %4, 0
  br i1 %tobool, label %if.then5, label %if.end7

if.then5:                                         ; preds = %if.end
  %5 = load i32, ptr %res, align 4
  %6 = load i32, ptr %res, align 4
  %call6 = call ptr @tpm_emulator_strerror(i32 noundef %6)
  call void (ptr, ...) @error_report(ptr noundef @.str.37, i32 noundef %5, ptr noundef %call6)
  store i32 -1, ptr %retval, align 4
  br label %return

if.end7:                                          ; preds = %if.end
  store i32 0, ptr %retval, align 4
  br label %return

return:                                           ; preds = %if.end7, %if.then5, %if.then
  %7 = load i32, ptr %retval, align 4
  ret i32 %7
}