; Function Attrs: nounwind sspstrong uwtable
define internal fastcc range(i32 -1, 1) i32 @tpm_emulator_stop_tpm(ptr noundef %tb) unnamed_addr #0 {
entry:
  %0 = alloca [4 x i8], align 16
  %res = alloca i32, align 4
  %call.i = tail call ptr @object_dynamic_cast_assert(ptr noundef %tb, ptr noundef nonnull @.str, ptr noundef nonnull @.str.2, i32 noundef 50, ptr noundef nonnull @__func__.TPM_EMULATOR) #12
  %savedstack = tail call ptr @llvm.stacksave.p0()
  call void @llvm.lifetime.start.p0(i64 4, ptr nonnull %0)
  %ctrl_chr.i = getelementptr inbounds nuw i8, ptr %call.i, i64 96
  %mutex.i = getelementptr inbounds nuw i8, ptr %call.i, i64 192
  %1 = load atomic i64, ptr @qemu_mutex_lock_func monotonic, align 8
  %2 = inttoptr i64 %1 to ptr
  tail call void %2(ptr noundef nonnull %mutex.i, ptr noundef nonnull @.str.11, i32 noundef 122) #12
  store i32 234881024, ptr %0, align 16
  %call3.us52.i = call i32 @qemu_chr_fe_write_all(ptr noundef nonnull %ctrl_chr.i, ptr noundef nonnull %0, i32 noundef 4) #12
  %cmp.us53.i = icmp slt i32 %call3.us52.i, 1
  br i1 %cmp.us53.i, label %qemu_lockable_auto_unlock.exit.i.i.i, label %if.end.i

if.end.i:                                         ; preds = %entry
  %call10.i = call i32 @qemu_chr_fe_read_all(ptr noundef nonnull %ctrl_chr.i, ptr noundef nonnull %res, i32 noundef 4) #12
  %cmp12.i = icmp slt i32 %call10.i, 1
  br i1 %cmp12.i, label %qemu_lockable_auto_unlock.exit.i.i.i, label %tpm_emulator_ctrlcmd.exit

qemu_lockable_auto_unlock.exit.i.i.i:             ; preds = %if.end.i, %entry
  call void @qemu_mutex_unlock_impl(ptr noundef nonnull %mutex.i, ptr noundef nonnull @.str.11, i32 noundef 132) #12
  call void @llvm.lifetime.end.p0(i64 4, ptr nonnull %0)
  call void @llvm.stackrestore.p0(ptr %savedstack)
  %call2 = tail call ptr @__errno_location() #14
  %3 = load i32, ptr %call2, align 4
  %call3 = call ptr @strerror(i32 noundef %3) #12
  call void (ptr, ...) @error_report(ptr noundef nonnull @.str.36, ptr noundef %call3) #12
  br label %return

tpm_emulator_ctrlcmd.exit:                        ; preds = %if.end.i
  call void @qemu_mutex_unlock_impl(ptr noundef nonnull %mutex.i, ptr noundef nonnull @.str.11, i32 noundef 132) #12
  call void @llvm.lifetime.end.p0(i64 4, ptr nonnull %0)
  call void @llvm.stackrestore.p0(ptr %savedstack)
  %4 = load i32, ptr %res, align 4
  %5 = call noundef i32 @llvm.bswap.i32(i32 %4)
  store i32 %5, ptr %res, align 4
  %tobool.not = icmp eq i32 %4, 0
  br i1 %tobool.not, label %return, label %for.body.i

for.cond.i:                                       ; preds = %for.body.i
  %inc.i = add nuw nsw i64 %i.04.i, 1
  %exitcond.not.i = icmp eq i64 %inc.i, 13
  br i1 %exitcond.not.i, label %tpm_emulator_strerror.exit, label %for.body.i, !llvm.loop !5

for.body.i:                                       ; preds = %tpm_emulator_ctrlcmd.exit, %for.cond.i
  %i.04.i = phi i64 [ %inc.i, %for.cond.i ], [ 0, %tpm_emulator_ctrlcmd.exit ]
  %arrayidx.i = getelementptr [13 x %struct.tpm_error], ptr @tpm_errors, i64 0, i64 %i.04.i
  %6 = load i32, ptr %arrayidx.i, align 16
  %cmp2.i = icmp eq i32 %6, %5
  br i1 %cmp2.i, label %if.then.i, label %for.cond.i

if.then.i:                                        ; preds = %for.body.i
  %string.i = getelementptr inbounds nuw i8, ptr %arrayidx.i, i64 8
  %7 = load ptr, ptr %string.i, align 8
  br label %tpm_emulator_strerror.exit

tpm_emulator_strerror.exit:                       ; preds = %for.cond.i, %if.then.i
  %retval.0.i = phi ptr [ %7, %if.then.i ], [ @.str.12, %for.cond.i ]
  call void (ptr, ...) @error_report(ptr noundef nonnull @.str.37, i32 noundef %5, ptr noundef %retval.0.i) #12
  br label %return

return:                                           ; preds = %tpm_emulator_ctrlcmd.exit, %tpm_emulator_strerror.exit, %qemu_lockable_auto_unlock.exit.i.i.i
  %retval.0 = phi i32 [ -1, %qemu_lockable_auto_unlock.exit.i.i.i ], [ -1, %tpm_emulator_strerror.exit ], [ 0, %tpm_emulator_ctrlcmd.exit ]
  ret i32 %retval.0
}